target datalayout = "e-m:e-p270:32:32-p271:32:32-p272:64:64-i64:64-i128:128-f80:128-n8:16:32:64-S128"
target triple = "x86_64-unknown-linux-gnu"

%struct.PropertyInfo = type { ptr, ptr, ptr, i8, ptr, ptr, ptr, ptr, ptr, ptr }
%struct.Property = type { ptr, ptr, i64, i8, i64, i8, %union.anon, i32, ptr, i32, ptr }
%union.anon = type { i64 }

; Function Attrs: nounwind sspstrong uwtable
define internal void @field_prop_get(ptr noundef %obj, ptr noundef %v, ptr noundef %name, ptr noundef %opaque, ptr noundef %errp) #0 {
entry:
  %obj.addr = alloca ptr, align 8
  %v.addr = alloca ptr, align 8
  %name.addr = alloca ptr, align 8
  %opaque.addr = alloca ptr, align 8
  %errp.addr = alloca ptr, align 8
  %prop = alloca ptr, align 8
  store ptr %obj, ptr %obj.addr, align 8
  store ptr %v, ptr %v.addr, align 8
  store ptr %name, ptr %name.addr, align 8
  store ptr %opaque, ptr %opaque.addr, align 8
  store ptr %errp, ptr %errp.addr, align 8
  %0 = load ptr, ptr %opaque.addr, align 8
  store ptr %0, ptr %prop, align 8
  %1 = load ptr, ptr %prop, align 8
  %info = getelementptr inbounds %struct.Property, ptr %1, i32 0, i32 1
  %2 = load ptr, ptr %info, align 8
  %get = getelementptr inbounds %struct.PropertyInfo, ptr %2, i32 0, i32 7
  %3 = load ptr, ptr %get, align 8
  %4 = load ptr, ptr %obj.addr, align 8
  %5 = load ptr, ptr %v.addr, align 8
  %6 = load ptr, ptr %name.addr, align 8
  %7 = load ptr, ptr %opaque.addr, align 8
  %8 = load ptr, ptr %errp.addr, align 8
  call void %3(ptr noundef %4, ptr noundef %5, ptr noundef %6, ptr noundef %7, ptr noundef %8)
  ret void
}