; Function Attrs: nounwind sspstrong uwtable
define internal void @field_prop_get(ptr noundef %obj, ptr noundef %v, ptr noundef %name, ptr noundef %opaque, ptr noundef %errp) #0 {
entry:
  %info = getelementptr inbounds nuw i8, ptr %opaque, i64 8
  %0 = load ptr, ptr %info, align 8
  %get = getelementptr inbounds nuw i8, ptr %0, i64 56
  %1 = load ptr, ptr %get, align 8
  tail call void %1(ptr noundef %obj, ptr noundef %v, ptr noundef %name, ptr noundef %opaque, ptr noundef %errp) #9
  ret void
}